; Function Attrs: nounwind uwtable
define internal void @spl_filesystem_dir_it_rewind(ptr nocapture noundef readonly %0) #0 {
  %2 = getelementptr i8, ptr %0, i64 104
  %.val = load ptr, ptr %2, align 8
  %3 = getelementptr inbounds i8, ptr %.val, i64 72
  %4 = getelementptr inbounds i8, ptr %.val, i64 88
  store i32 0, ptr %4, align 8
  %5 = load ptr, ptr %3, align 8
  %.not = icmp eq ptr %5, null
  br i1 %.not, label %8, label %6

6:                                                ; preds = %1
  %7 = tail call i32 @_php_stream_seek(ptr noundef nonnull %5, i64 noundef 0, i32 noundef 0) #18
  br label %8

8:                                                ; preds = %6, %1
  %9 = getelementptr inbounds i8, ptr %.val, i64 32
  %10 = load ptr, ptr %9, align 8
  %.not.i = icmp eq ptr %10, null
  br i1 %.not.i, label %25, label %11

11:                                               ; preds = %8
  %12 = getelementptr inbounds i8, ptr %10, i64 4
  %13 = load i32, ptr %12, align 4
  %14 = and i32 %13, 64
  %.not18.i = icmp eq i32 %14, 0
  br i1 %.not18.i, label %15, label %24

15:                                               ; preds = %11
  %16 = load i32, ptr %10, align 4
  %17 = icmp ne i32 %16, 0
  tail call void @llvm.assume(i1 %17)
  %18 = add i32 %16, -1
  store i32 %18, ptr %10, align 4
  %19 = icmp eq i32 %18, 0
  br i1 %19, label %20, label %24

20:                                               ; preds = %15
  %21 = and i32 %13, 128
  %.not19.i = icmp eq i32 %21, 0
  br i1 %.not19.i, label %23, label %22

22:                                               ; preds = %20
  tail call void @free(ptr noundef nonnull %10) #18
  br label %24

23:                                               ; preds = %20
  tail call void @_efree(ptr noundef nonnull %10) #18
  br label %24

24:                                               ; preds = %23, %22, %15, %11
  store ptr null, ptr %9, align 8
  br label %25

25:                                               ; preds = %24, %8
  %26 = load ptr, ptr %3, align 8
  %.not20.i = icmp eq ptr %26, null
  br i1 %.not20.i, label %30, label %27

27:                                               ; preds = %25
  %28 = getelementptr inbounds i8, ptr %.val, i64 120
  %29 = tail call ptr @_php_stream_readdir(ptr noundef nonnull %26, ptr noundef nonnull %28) #18
  %.not21.i = icmp eq ptr %29, null
  br i1 %.not21.i, label %30, label %spl_filesystem_dir_read.exit

30:                                               ; preds = %27, %25
  %31 = getelementptr inbounds i8, ptr %.val, i64 120
  store i8 0, ptr %31, align 8
  br label %spl_filesystem_dir_read.exit

spl_filesystem_dir_read.exit:                     ; preds = %27, %30
  ret void
}